Certificate:
    Data:
        Version: 3 (0x2)
        Serial Number: 4 (0x4)
        Signature Algorithm: sha256WithRSAEncryption
        Issuer: CN=ROOT CA
        Validity
            Not Before: Feb  8 18:17:20 2022 GMT
            Not After : Feb  6 18:17:20 2032 GMT
        Subject: C=US, ST=Florida, L=Jacksonville, O=DShield, OU=Decoy, CN=honeypot
        Subject Public Key Info:
            Public Key Algorithm: rsaEncryption
                RSA Public-Key: (2048 bit)
                Modulus:
                    00:b8:ff:5b:a7:9c:e1:99:4b:7f:f8:97:19:ec:cd:
                    fc:13:0d:58:ee:86:51:57:de:60:0c:b5:49:00:d2:
                    a6:a2:35:57:8f:91:06:86:cf:4e:b7:d3:02:c2:12:
                    ca:ee:b3:4f:13:9e:96:73:dd:bc:4d:82:23:a8:43:
                    05:cb:31:f8:35:6a:46:13:47:0b:1b:29:fe:98:6c:
                    f7:a7:1f:f9:d4:f9:16:ca:12:8a:e0:48:3a:b2:a1:
                    c6:58:a2:11:96:6b:cd:db:df:bb:2d:d7:d9:a5:37:
                    e7:78:d4:c2:a9:8d:62:ad:a1:94:0f:3b:67:21:9c:
                    c6:8a:8c:15:c8:7c:ea:63:65:35:fb:2d:cb:db:31:
                    5e:90:5f:97:37:36:d4:7f:f4:26:17:b9:54:79:64:
                    83:4d:c0:22:da:00:00:9b:68:8c:06:4b:26:c0:68:
                    eb:11:e4:43:08:4f:fc:34:df:76:28:b5:e7:d7:4c:
                    f9:e6:a4:7c:3e:9d:3c:92:5b:6d:be:33:ca:1e:fe:
                    1a:23:3e:8e:3a:77:f3:96:f0:c8:d8:b0:3c:07:e8:
                    d0:42:05:cb:18:94:49:75:28:b2:87:73:8e:32:65:
                    81:3d:f8:19:5c:78:6b:b8:73:24:b5:9d:1c:a9:3c:
                    4e:81:6c:8f:0f:d7:04:b9:ce:eb:ae:c9:99:dc:e5:
                    99:65
                Exponent: 65537 (0x10001)
        X509v3 extensions:
            X509v3 Subject Key Identifier: 
                CA:CE:A3:37:E7:70:9A:91:9E:37:B4:8C:97:5D:43:FB:D4:AD:CD:AE
            X509v3 Authority Key Identifier: 
                keyid:CB:A6:EB:BB:9D:29:A1:FB:EC:A5:DB:72:5A:72:27:30:E6:CA:45:64

            X509v3 Basic Constraints: 
                CA:FALSE
            X509v3 Key Usage: 
                Digital Signature, Key Encipherment
    Signature Algorithm: sha256WithRSAEncryption
         79:49:e8:13:b6:37:59:93:a1:5a:32:7f:b7:97:7e:4f:a2:5f:
         19:c6:f3:8e:35:d1:5d:ae:22:7b:c0:56:2b:a3:be:7b:99:d6:
         e7:2f:78:7e:9c:50:63:ec:a4:9e:57:95:00:2d:d8:40:11:12:
         df:70:9f:1e:dc:49:57:98:fa:6c:5b:91:89:b7:b7:e3:f2:a4:
         23:ad:11:20:22:56:f9:d0:97:45:58:c6:ce:c8:81:13:3e:71:
         61:4a:5e:86:cc:c8:76:5e:72:2a:f5:9d:6d:d6:99:7c:96:20:
         24:e7:58:59:ce:a4:26:ac:b2:c6:e0:65:98:a0:ee:fa:74:a0:
         81:36:b9:61:30:08:4a:79:ea:1b:e4:0f:de:88:e0:f0:bd:c7:
         0c:a8:a0:69:8d:c0:86:41:3b:0e:08:5e:ff:e7:a0:10:89:16:
         7e:e1:dd:b7:49:f1:7e:29:90:1c:21:dd:c7:0c:67:06:0d:2d:
         1c:49:49:f4:a8:56:62:12:4c:fb:d6:83:a1:a9:ed:a4:ab:81:
         a1:7c:c3:4e:9d:15:76:3e:a3:cb:55:52:9f:0d:0e:30:b9:1d:
         66:32:c8:9a:5c:ba:05:33:61:5e:fe:0f:18:e1:72:84:5f:f0:
         d4:5e:53:c4:49:5c:a9:2d:7e:fc:fd:93:9e:aa:1b:56:60:78:
         97:37:53:dc:67:21:ba:04:f6:6e:f6:0f:0c:95:41:06:74:1f:
         a6:77:38:1a:b0:fb:09:5e:d9:59:4d:55:1a:ae:4e:d2:36:29:
         1f:72:e7:b4:b1:26:60:49:45:71:0f:ed:28:5d:cc:4a:fc:e2:
         ee:6c:e1:5f:4c:c3:21:ad:20:d1:11:66:c2:5c:a5:65:d8:08:
         c1:bb:a1:c0:35:39:6b:50:e5:64:a8:71:6e:91:8b:50:b2:b1:
         4d:2d:97:a4:2d:4f:04:33:6f:62:29:a7:95:c1:d4:d3:b0:ba:
         7a:33:a0:27:a6:60:ed:ee:fa:1b:3a:cd:d4:d9:67:ea:07:2e:
         64:69:52:61:e6:68:bc:ee:a6:75:f1:b9:50:b1:0a:34:bf:d2:
         d4:8c:e7:7f:71:ef:ef:bd:45:6f:b6:05:5c:40:6f:b3:e6:b8:
         44:36:fb:6a:dc:fb:47:c0:8d:29:4a:ea:36:a8:d6:14:d1:48:
         bb:00:24:77:f3:e7:2d:df:9b:4b:1c:1c:20:37:31:f6:fe:64:
         aa:bd:9d:53:4d:ef:71:82:2f:6d:79:f2:2c:25:7b:fa:a7:4d:
         73:62:2d:7b:7a:a4:39:76:04:88:b6:f9:a3:f8:8c:5d:2f:68:
         df:4e:0c:66:b2:d4:bf:f7:23:bb:2f:49:09:7b:b2:c1:70:70:
         6d:6c:09:2a:cd:db:91:bf
-----BEGIN CERTIFICATE-----
MIIEUjCCAjqgAwIBAgIBBDANBgkqhkiG9w0BAQsFADASMRAwDgYDVQQDDAdST09U
IENBMB4XDTIyMDIwODE4MTcyMFoXDTMyMDIwNjE4MTcyMFowazELMAkGA1UEBhMC
VVMxEDAOBgNVBAgMB0Zsb3JpZGExFTATBgNVBAcMDEphY2tzb252aWxsZTEQMA4G
A1UECgwHRFNoaWVsZDEOMAwGA1UECwwFRGVjb3kxETAPBgNVBAMMCGhvbmV5cG90
MIIBIjANBgkqhkiG9w0BAQEFAAOCAQ8AMIIBCgKCAQEAuP9bp5zhmUt/+JcZ7M38
Ew1Y7oZRV95gDLVJANKmojVXj5EGhs9Ot9MCwhLK7rNPE56Wc928TYIjqEMFyzH4
NWpGE0cLGyn+mGz3px/51PkWyhKK4Eg6sqHGWKIRlmvN29+7LdfZpTfneNTCqY1i
raGUDztnIZzGiowVyHzqY2U1+y3L2zFekF+XNzbUf/QmF7lUeWSDTcAi2gAAm2iM
BksmwGjrEeRDCE/8NN92KLXn10z55qR8Pp08klttvjPKHv4aIz6OOnfzlvDI2LA8
B+jQQgXLGJRJdSiyh3OOMmWBPfgZXHhruHMktZ0cqTxOgWyPD9cEuc7rrsmZ3OWZ
ZQIDAQABo1owWDAdBgNVHQ4EFgQUys6jN+dwmpGeN7SMl11D+9Stza4wHwYDVR0j
BBgwFoAUy6bru50pofvspdtyWnInMObKRWQwCQYDVR0TBAIwADALBgNVHQ8EBAMC
BaAwDQYJKoZIhvcNAQELBQADggIBAHlJ6BO2N1mToVoyf7eXfk+iXxnG84410V2u
InvAViujvnuZ1ucveH6cUGPspJ5XlQAt2EAREt9wnx7cSVeY+mxbkYm3t+PypCOt
ESAiVvnQl0VYxs7IgRM+cWFKXobMyHZecir1nW3WmXyWICTnWFnOpCasssbgZZig
7vp0oIE2uWEwCEp56hvkD96I4PC9xwyooGmNwIZBOw4IXv/noBCJFn7h3bdJ8X4p
kBwh3ccMZwYNLRxJSfSoVmISTPvWg6Gp7aSrgaF8w06dFXY+o8tVUp8NDjC5HWYy
yJpcugUzYV7+DxjhcoRf8NReU8RJXKktfvz9k56qG1ZgeJc3U9xnIboE9m72DwyV
QQZ0H6Z3OBqw+wle2VlNVRquTtI2KR9y57SxJmBJRXEP7ShdzEr84u5s4V9MwyGt
INERZsJcpWXYCMG7ocA1OWtQ5WSocW6Ri1CysU0tl6QtTwQzb2Ipp5XB1NOwunoz
oCemYO3u+hs6zdTZZ+oHLmRpUmHmaLzupnXxuVCxCjS/0tSM539x7++9RW+2BVxA
b7PmuEQ2+2rc+0fAjSlK6jao1hTRSLsAJHfz5y3fm0scHCA3Mfb+ZKq9nVNN73GC
L2158iwle/qnTXNiLXt6pDl2BIi2+aP4jF0vaN9ODGay1L/3I7svSQl7ssFwcG1s
CSrN25G/
-----END CERTIFICATE-----
